target datalayout = "e-m:e-p270:32:32-p271:32:32-p272:64:64-i64:64-i128:128-f80:128-n8:16:32:64-S128"
target triple = "x86_64-pc-linux-gnu"

%struct.PlannerInfo = type { i32, ptr, ptr, i32, ptr, ptr, ptr, ptr, i32, ptr, ptr, ptr, ptr, ptr, ptr, ptr, ptr, i32, ptr, ptr, ptr, ptr, ptr, i8, ptr, ptr, ptr, ptr, ptr, i32, ptr, ptr, ptr, ptr, ptr, ptr, ptr, i32, ptr, ptr, ptr, i32, ptr, ptr, ptr, ptr, ptr, ptr, [8 x ptr], [8 x ptr], ptr, ptr, ptr, ptr, ptr, ptr, ptr, double, double, double, i32, i8, i8, i8, i8, i8, i8, i8, i32, ptr, ptr, i32, i8, i8, i32, ptr, ptr, ptr, ptr, ptr, ptr, i8, ptr }
%struct.List = type { i32, i32, i32, ptr, [0 x %union.ListCell] }
%union.ListCell = type { ptr }
%struct.Expr = type { i32 }
%struct.Param = type { %struct.Expr, i32, i32, i32, i32, i32, i32 }

@.str.1 = private unnamed_addr constant [10 x i8] c"setrefs.c\00", align 1
@.str.2 = private unnamed_addr constant [34 x i8] c"unexpected PARAM_MULTIEXPR ID: %d\00", align 1
@__func__.fix_param_node = private unnamed_addr constant [15 x i8] c"fix_param_node\00", align 1

; Function Attrs: inlinehint nounwind uwtable
define internal ptr @list_nth_cell(ptr noundef %0, i32 noundef %1) #2 {
  %3 = alloca ptr, align 8
  %4 = alloca i32, align 4
  store ptr %0, ptr %3, align 8
  store i32 %1, ptr %4, align 4
  %5 = load ptr, ptr %3, align 8
  %6 = getelementptr inbounds nuw %struct.List, ptr %5, i32 0, i32 3
  %7 = load ptr, ptr %6, align 8
  %8 = load i32, ptr %4, align 4
  %9 = sext i32 %8 to i64
  %10 = getelementptr inbounds %union.ListCell, ptr %7, i64 %9
  ret ptr %10
}

; Function Attrs: inlinehint nounwind uwtable
define internal ptr @list_nth(ptr noundef %0, i32 noundef %1) #2 {
  %3 = alloca ptr, align 8
  %4 = alloca i32, align 4
  store ptr %0, ptr %3, align 8
  store i32 %1, ptr %4, align 4
  %5 = load ptr, ptr %3, align 8
  %6 = load i32, ptr %4, align 4
  %7 = call ptr @list_nth_cell(ptr noundef %5, i32 noundef %6)
  %8 = load ptr, ptr %7, align 8
  ret ptr %8
}

; Function Attrs: inlinehint nounwind uwtable
define internal i32 @list_length(ptr noundef %0) #2 {
  %2 = alloca ptr, align 8
  store ptr %0, ptr %2, align 8
  %3 = load ptr, ptr %2, align 8
  %4 = icmp ne ptr %3, null
  br i1 %4, label %5, label %9

5:                                                ; preds = %1
  %6 = load ptr, ptr %2, align 8
  %7 = getelementptr inbounds nuw %struct.List, ptr %6, i32 0, i32 1
  %8 = load i32, ptr %7, align 4
  br label %10

9:                                                ; preds = %1
  br label %10

10:                                               ; preds = %9, %5
  %11 = phi i32 [ %8, %5 ], [ 0, %9 ]
  ret i32 %11
}

; Function Attrs: nounwind uwtable
define internal ptr @fix_param_node(ptr noundef %0, ptr noundef %1) #0 {
  %3 = alloca ptr, align 8
  %4 = alloca ptr, align 8
  %5 = alloca ptr, align 8
  %6 = alloca i32, align 4
  %7 = alloca i32, align 4
  %8 = alloca ptr, align 8
  store ptr %0, ptr %4, align 8
  store ptr %1, ptr %5, align 8
  %9 = load ptr, ptr %5, align 8
  %10 = getelementptr inbounds nuw %struct.Param, ptr %9, i32 0, i32 1
  %11 = load i32, ptr %10, align 4
  %12 = icmp eq i32 %11, 3
  br i1 %12, label %13, label %79

13:                                               ; preds = %2
  call void @llvm.lifetime.start.p0(i64 4, ptr %6) #8
  %14 = load ptr, ptr %5, align 8
  %15 = getelementptr inbounds nuw %struct.Param, ptr %14, i32 0, i32 2
  %16 = load i32, ptr %15, align 4
  %17 = ashr i32 %16, 16
  store i32 %17, ptr %6, align 4
  call void @llvm.lifetime.start.p0(i64 4, ptr %7) #8
  %18 = load ptr, ptr %5, align 8
  %19 = getelementptr inbounds nuw %struct.Param, ptr %18, i32 0, i32 2
  %20 = load i32, ptr %19, align 4
  %21 = and i32 %20, 65535
  store i32 %21, ptr %7, align 4
  call void @llvm.lifetime.start.p0(i64 8, ptr %8) #8
  %22 = load i32, ptr %6, align 4
  %23 = icmp sle i32 %22, 0
  br i1 %23, label %31, label %24

24:                                               ; preds = %13
  %25 = load i32, ptr %6, align 4
  %26 = load ptr, ptr %4, align 8
  %27 = getelementptr inbounds nuw %struct.PlannerInfo, ptr %26, i32 0, i32 20
  %28 = load ptr, ptr %27, align 8
  %29 = call i32 @list_length(ptr noundef %28)
  %30 = icmp sgt i32 %25, %29
  br i1 %30, label %31, label %45

31:                                               ; preds = %24, %13
  br label %32

32:                                               ; preds = %31
  br i1 true, label %33, label %35

33:                                               ; preds = %32
  %34 = call zeroext i1 @errstart_cold(i32 noundef 21, ptr noundef null) #9
  br i1 %34, label %37, label %42

35:                                               ; preds = %32
  %36 = call zeroext i1 @errstart(i32 noundef 21, ptr noundef null)
  br i1 %36, label %37, label %42

37:                                               ; preds = %35, %33
  %38 = load ptr, ptr %5, align 8
  %39 = getelementptr inbounds nuw %struct.Param, ptr %38, i32 0, i32 2
  %40 = load i32, ptr %39, align 4
  %41 = call i32 (ptr, ...) @errmsg_internal(ptr noundef @.str.2, i32 noundef %40)
  call void @errfinish(ptr noundef @.str.1, i32 noundef 2130, ptr noundef @__func__.fix_param_node)
  br label %42

42:                                               ; preds = %37, %35, %33
  unreachable

43:                                               ; No predecessors!
  br label %44

44:                                               ; preds = %43
  br label %45

45:                                               ; preds = %44, %24
  %46 = load ptr, ptr %4, align 8
  %47 = getelementptr inbounds nuw %struct.PlannerInfo, ptr %46, i32 0, i32 20
  %48 = load ptr, ptr %47, align 8
  %49 = load i32, ptr %6, align 4
  %50 = sub i32 %49, 1
  %51 = call ptr @list_nth(ptr noundef %48, i32 noundef %50)
  store ptr %51, ptr %8, align 8
  %52 = load i32, ptr %7, align 4
  %53 = icmp sle i32 %52, 0
  br i1 %53, label %59, label %54

54:                                               ; preds = %45
  %55 = load i32, ptr %7, align 4
  %56 = load ptr, ptr %8, align 8
  %57 = call i32 @list_length(ptr noundef %56)
  %58 = icmp sgt i32 %55, %57
  br i1 %58, label %59, label %73

59:                                               ; preds = %54, %45
  br label %60

60:                                               ; preds = %59
  br i1 true, label %61, label %63

61:                                               ; preds = %60
  %62 = call zeroext i1 @errstart_cold(i32 noundef 21, ptr noundef null) #9
  br i1 %62, label %65, label %70

63:                                               ; preds = %60
  %64 = call zeroext i1 @errstart(i32 noundef 21, ptr noundef null)
  br i1 %64, label %65, label %70

65:                                               ; preds = %63, %61
  %66 = load ptr, ptr %5, align 8
  %67 = getelementptr inbounds nuw %struct.Param, ptr %66, i32 0, i32 2
  %68 = load i32, ptr %67, align 4
  %69 = call i32 (ptr, ...) @errmsg_internal(ptr noundef @.str.2, i32 noundef %68)
  call void @errfinish(ptr noundef @.str.1, i32 noundef 2133, ptr noundef @__func__.fix_param_node)
  br label %70

70:                                               ; preds = %65, %63, %61
  unreachable

71:                                               ; No predecessors!
  br label %72

72:                                               ; preds = %71
  br label %73

73:                                               ; preds = %72, %54
  %74 = load ptr, ptr %8, align 8
  %75 = load i32, ptr %7, align 4
  %76 = sub i32 %75, 1
  %77 = call ptr @list_nth(ptr noundef %74, i32 noundef %76)
  %78 = call ptr @copyObjectImpl(ptr noundef %77)
  store ptr %78, ptr %3, align 8
  call void @llvm.lifetime.end.p0(i64 8, ptr %8) #8
  call void @llvm.lifetime.end.p0(i64 4, ptr %7) #8
  call void @llvm.lifetime.end.p0(i64 4, ptr %6) #8
  br label %82

79:                                               ; preds = %2
  %80 = load ptr, ptr %5, align 8
  %81 = call ptr @copyObjectImpl(ptr noundef %80)
  store ptr %81, ptr %3, align 8
  br label %82

82:                                               ; preds = %79, %73
  %83 = load ptr, ptr %3, align 8
  ret ptr %83
}