; Function Attrs: nounwind uwtable
define internal fastcc ptr @fix_param_node(ptr noundef readonly captures(none) %0, ptr noundef nonnull %1) unnamed_addr #0 {
  %3 = getelementptr inbounds nuw i8, ptr %1, i64 4
  %4 = load i32, ptr %3, align 4
  %5 = icmp eq i32 %4, 3
  br i1 %5, label %6, label %40

6:                                                ; preds = %2
  %7 = getelementptr inbounds nuw i8, ptr %1, i64 8
  %8 = load i32, ptr %7, align 4
  %9 = ashr i32 %8, 16
  %10 = and i32 %8, 65535
  %11 = icmp slt i32 %9, 1
  br i1 %11, label %list_length.exit.thread, label %12

12:                                               ; preds = %6
  %13 = getelementptr inbounds nuw i8, ptr %0, i64 160
  %14 = load ptr, ptr %13, align 8
  %.not.i = icmp eq ptr %14, null
  br i1 %.not.i, label %list_length.exit.thread, label %list_length.exit

list_length.exit:                                 ; preds = %12
  %15 = getelementptr inbounds nuw i8, ptr %14, i64 4
  %16 = load i32, ptr %15, align 4
  %17 = icmp sgt i32 %9, %16
  br i1 %17, label %list_length.exit.thread, label %21

list_length.exit.thread:                          ; preds = %12, %list_length.exit, %6
  %18 = tail call zeroext i1 @errstart_cold(i32 noundef 21, ptr noundef null) #9
  tail call void @llvm.assume(i1 %18)
  %19 = load i32, ptr %7, align 4
  %20 = tail call i32 (ptr, ...) @errmsg_internal(ptr noundef nonnull @.str.2, i32 noundef %19) #8
  tail call void @errfinish(ptr noundef nonnull @.str.1, i32 noundef 2130, ptr noundef nonnull @__func__.fix_param_node) #8
  unreachable

21:                                               ; preds = %list_length.exit
  %22 = getelementptr i8, ptr %14, i64 16
  %.val = load ptr, ptr %22, align 8
  %23 = zext nneg i32 %9 to i64
  %24 = getelementptr %union.ListCell, ptr %.val, i64 %23
  %25 = getelementptr i8, ptr %24, i64 -8
  %26 = load ptr, ptr %25, align 8
  %27 = icmp eq i32 %10, 0
  %.not.i19 = icmp eq ptr %26, null
  %or.cond = select i1 %27, i1 true, i1 %.not.i19
  br i1 %or.cond, label %list_length.exit20.thread, label %list_length.exit20

list_length.exit20:                               ; preds = %21
  %28 = getelementptr inbounds nuw i8, ptr %26, i64 4
  %29 = load i32, ptr %28, align 4
  %30 = icmp sgt i32 %10, %29
  br i1 %30, label %list_length.exit20.thread, label %34

list_length.exit20.thread:                        ; preds = %list_length.exit20, %21
  %31 = tail call zeroext i1 @errstart_cold(i32 noundef 21, ptr noundef null) #9
  tail call void @llvm.assume(i1 %31)
  %32 = load i32, ptr %7, align 4
  %33 = tail call i32 (ptr, ...) @errmsg_internal(ptr noundef nonnull @.str.2, i32 noundef %32) #8
  tail call void @errfinish(ptr noundef nonnull @.str.1, i32 noundef 2133, ptr noundef nonnull @__func__.fix_param_node) #8
  unreachable

34:                                               ; preds = %list_length.exit20
  %35 = getelementptr i8, ptr %26, i64 16
  %.val18 = load ptr, ptr %35, align 8
  %36 = zext nneg i32 %10 to i64
  %37 = getelementptr %union.ListCell, ptr %.val18, i64 %36
  %38 = getelementptr i8, ptr %37, i64 -8
  %39 = load ptr, ptr %38, align 8
  br label %40

40:                                               ; preds = %2, %34
  %.sink = phi ptr [ %39, %34 ], [ %1, %2 ]
  %41 = tail call ptr @copyObjectImpl(ptr noundef %.sink) #8
  ret ptr %41
}